target datalayout = "e-m:e-p270:32:32-p271:32:32-p272:64:64-i64:64-i128:128-f80:128-n8:16:32:64-S128"
target triple = "x86_64-pc-linux-gnu"

%"class.icu_77::MessagePattern" = type <{ %"class.icu_77::UObject", i32, [4 x i8], %"class.icu_77::UnicodeString", ptr, ptr, i32, [4 x i8], ptr, ptr, i32, i8, i8, i8, i8 }>
%"class.icu_77::UObject" = type { ptr }
%"class.icu_77::UnicodeString" = type { %"class.icu_77::Replaceable", %"union.icu_77::UnicodeString::StackBufferOrFields" }
%"class.icu_77::Replaceable" = type { %"class.icu_77::UObject" }
%"union.icu_77::UnicodeString::StackBufferOrFields" = type { %struct.anon.0, [32 x i8] }
%struct.anon.0 = type { i16, i32, i32, ptr }
%struct.UParseError = type { i32, i32, [16 x i16], [16 x i16] }

; Function Attrs: inlinehint mustprogress nounwind uwtable
define internal noundef signext i8 @_ZL9U_FAILURE10UErrorCode(i32 noundef %0) #1 {
  %2 = alloca i32, align 4
  store i32 %0, ptr %2, align 4, !tbaa !36
  %3 = load i32, ptr %2, align 4, !tbaa !36
  %4 = icmp sgt i32 %3, 0
  %5 = zext i1 %4 to i8
  ret i8 %5
}

; Function Attrs: mustprogress uwtable
define void @_ZN6icu_7714MessagePattern8preParseERKNS_13UnicodeStringEP11UParseErrorR10UErrorCode(ptr noundef nonnull align 8 dereferenceable(127) %0, ptr noundef nonnull align 8 dereferenceable(64) %1, ptr noundef %2, ptr noundef nonnull align 4 dereferenceable(4) %3) #0 align 2 {
  %5 = alloca ptr, align 8
  %6 = alloca ptr, align 8
  %7 = alloca ptr, align 8
  %8 = alloca ptr, align 8
  store ptr %0, ptr %5, align 8, !tbaa !3
  store ptr %1, ptr %6, align 8, !tbaa !33
  store ptr %2, ptr %7, align 8, !tbaa !39
  store ptr %3, ptr %8, align 8, !tbaa !8
  %9 = load ptr, ptr %5, align 8
  %10 = load ptr, ptr %8, align 8, !tbaa !8
  %11 = load i32, ptr %10, align 4, !tbaa !36
  %12 = call noundef signext i8 @_ZL9U_FAILURE10UErrorCode(i32 noundef %11)
  %13 = icmp ne i8 %12, 0
  br i1 %13, label %14, label %15

14:                                               ; preds = %4
  br label %38

15:                                               ; preds = %4
  %16 = load ptr, ptr %7, align 8, !tbaa !39
  %17 = icmp ne ptr %16, null
  br i1 %17, label %18, label %29

18:                                               ; preds = %15
  %19 = load ptr, ptr %7, align 8, !tbaa !39
  %20 = getelementptr inbounds nuw %struct.UParseError, ptr %19, i32 0, i32 0
  store i32 0, ptr %20, align 4, !tbaa !56
  %21 = load ptr, ptr %7, align 8, !tbaa !39
  %22 = getelementptr inbounds nuw %struct.UParseError, ptr %21, i32 0, i32 1
  store i32 0, ptr %22, align 4, !tbaa !58
  %23 = load ptr, ptr %7, align 8, !tbaa !39
  %24 = getelementptr inbounds nuw %struct.UParseError, ptr %23, i32 0, i32 2
  %25 = getelementptr inbounds [16 x i16], ptr %24, i64 0, i64 0
  store i16 0, ptr %25, align 4, !tbaa !59
  %26 = load ptr, ptr %7, align 8, !tbaa !39
  %27 = getelementptr inbounds nuw %struct.UParseError, ptr %26, i32 0, i32 3
  %28 = getelementptr inbounds [16 x i16], ptr %27, i64 0, i64 0
  store i16 0, ptr %28, align 4, !tbaa !59
  br label %29

29:                                               ; preds = %18, %15
  %30 = load ptr, ptr %6, align 8, !tbaa !33
  %31 = getelementptr inbounds nuw %"class.icu_77::MessagePattern", ptr %9, i32 0, i32 3
  %32 = call noundef nonnull align 8 dereferenceable(64) ptr @_ZN6icu_7713UnicodeStringaSERKS0_(ptr noundef nonnull align 8 dereferenceable(64) %31, ptr noundef nonnull align 8 dereferenceable(64) %30)
  %33 = getelementptr inbounds nuw %"class.icu_77::MessagePattern", ptr %9, i32 0, i32 12
  store i8 0, ptr %33, align 1, !tbaa !29
  %34 = getelementptr inbounds nuw %"class.icu_77::MessagePattern", ptr %9, i32 0, i32 11
  store i8 0, ptr %34, align 4, !tbaa !28
  %35 = getelementptr inbounds nuw %"class.icu_77::MessagePattern", ptr %9, i32 0, i32 13
  store i8 0, ptr %35, align 2, !tbaa !30
  %36 = getelementptr inbounds nuw %"class.icu_77::MessagePattern", ptr %9, i32 0, i32 6
  store i32 0, ptr %36, align 8, !tbaa !24
  %37 = getelementptr inbounds nuw %"class.icu_77::MessagePattern", ptr %9, i32 0, i32 10
  store i32 0, ptr %37, align 8, !tbaa !27
  br label %38

38:                                               ; preds = %29, %14
  ret void
}