; Function Attrs: mustprogress uwtable
define void @_ZN6icu_7714MessagePattern8preParseERKNS_13UnicodeStringEP11UParseErrorR10UErrorCode(ptr noundef nonnull align 8 dereferenceable(127) %0, ptr noundef nonnull align 8 dereferenceable(64) %1, ptr noundef writeonly %2, ptr noundef nonnull readonly align 4 captures(none) dereferenceable(4) %3) local_unnamed_addr #2 align 2 {
  %5 = load i32, ptr %3, align 4, !tbaa !20
  %6 = icmp slt i32 %5, 1
  br i1 %6, label %7, label %17

7:                                                ; preds = %4
  %.not8 = icmp eq ptr %2, null
  br i1 %.not8, label %12, label %8

8:                                                ; preds = %7
  store i32 0, ptr %2, align 4, !tbaa !27
  %9 = getelementptr inbounds nuw i8, ptr %2, i64 4
  store i32 0, ptr %9, align 4, !tbaa !29
  %10 = getelementptr inbounds nuw i8, ptr %2, i64 8
  store i16 0, ptr %10, align 4, !tbaa !30
  %11 = getelementptr inbounds nuw i8, ptr %2, i64 40
  store i16 0, ptr %11, align 4, !tbaa !30
  br label %12

12:                                               ; preds = %8, %7
  %13 = getelementptr inbounds nuw i8, ptr %0, i64 16
  %14 = tail call noundef nonnull align 8 dereferenceable(64) ptr @_ZN6icu_7713UnicodeStringaSERKS0_(ptr noundef nonnull align 8 dereferenceable(64) %13, ptr noundef nonnull align 8 dereferenceable(64) %1)
  %15 = getelementptr inbounds nuw i8, ptr %0, i64 96
  store i32 0, ptr %15, align 8, !tbaa !32
  %16 = getelementptr inbounds nuw i8, ptr %0, i64 120
  tail call void @llvm.memset.p0.i64(ptr noundef nonnull align 8 dereferenceable(7) %16, i8 0, i64 7, i1 false)
  br label %17

17:                                               ; preds = %4, %12
  ret void
}